target datalayout = "e-m:e-p270:32:32-p271:32:32-p272:64:64-i64:64-i128:128-f80:128-n8:16:32:64-S128"
target triple = "x86_64-pc-linux-gnu"

%"class.Ipopt::PardisoMKLSolverInterface" = type <{ %"class.Ipopt::SparseSymLinearSolverInterface.base", [3 x i8], i32, i32, [4 x i8], ptr, i32, i32, i8, i8, i8, i8, i8, [3 x i8], ptr, i32, i32, i32, [4 x i8], ptr, ptr, i32, i32, i32, [4 x i8] }>
%"class.Ipopt::SparseSymLinearSolverInterface.base" = type { %"class.Ipopt::AlgorithmStrategyObject.base" }
%"class.Ipopt::AlgorithmStrategyObject.base" = type <{ %"class.Ipopt::ReferencedObject.base", [4 x i8], %"class.Ipopt::SmartPtr", %"class.Ipopt::SmartPtr.0", %"class.Ipopt::SmartPtr.1", %"class.Ipopt::SmartPtr.2", i8 }>
%"class.Ipopt::ReferencedObject.base" = type <{ ptr, i32 }>
%"class.Ipopt::SmartPtr" = type { ptr }
%"class.Ipopt::SmartPtr.0" = type { ptr }
%"class.Ipopt::SmartPtr.1" = type { ptr }
%"class.Ipopt::SmartPtr.2" = type { ptr }

; Function Attrs: mustprogress nounwind uwtable
define linkonce_odr void @_ZN5Ipopt30SparseSymLinearSolverInterfaceD2Ev(ptr noundef nonnull align 8 dereferenceable(49) %0) unnamed_addr #6 comdat align 2 {
  %2 = alloca ptr, align 8
  store ptr %0, ptr %2, align 8
  %3 = load ptr, ptr %2, align 8
  call void @_ZN5Ipopt23AlgorithmStrategyObjectD2Ev(ptr noundef nonnull align 8 dereferenceable(49) %3) #3
  ret void
}

; Function Attrs: mustprogress nounwind uwtable
define void @_ZN5Ipopt25PardisoMKLSolverInterfaceD2Ev(ptr noundef nonnull align 8 dereferenceable(140) %0) unnamed_addr #6 align 2 personality ptr @__gxx_personality_v0 {
  %2 = alloca ptr, align 8
  %3 = alloca i32, align 4
  %4 = alloca i32, align 4
  %5 = alloca i32, align 4
  %6 = alloca i32, align 4
  %7 = alloca i32, align 4
  %8 = alloca double, align 8
  store ptr %0, ptr %2, align 8
  %9 = load ptr, ptr %2, align 8
  store ptr getelementptr inbounds ({ [14 x ptr] }, ptr @_ZTVN5Ipopt25PardisoMKLSolverInterfaceE, i32 0, i32 0, i32 2), ptr %9, align 8
  %10 = getelementptr inbounds %"class.Ipopt::PardisoMKLSolverInterface", ptr %9, i32 0, i32 12
  %11 = load i8, ptr %10, align 4
  %12 = trunc i8 %11 to i1
  br i1 %12, label %13, label %27

13:                                               ; preds = %1
  store i32 -1, ptr %3, align 4
  %14 = getelementptr inbounds %"class.Ipopt::PardisoMKLSolverInterface", ptr %9, i32 0, i32 2
  %15 = load i32, ptr %14, align 4
  store i32 %15, ptr %4, align 4
  store i32 0, ptr %5, align 4
  store i32 0, ptr %7, align 4
  store double 0.000000e+00, ptr %8, align 8
  %16 = getelementptr inbounds %"class.Ipopt::PardisoMKLSolverInterface", ptr %9, i32 0, i32 14
  %17 = load ptr, ptr %16, align 8
  %18 = getelementptr inbounds %"class.Ipopt::PardisoMKLSolverInterface", ptr %9, i32 0, i32 15
  %19 = getelementptr inbounds %"class.Ipopt::PardisoMKLSolverInterface", ptr %9, i32 0, i32 16
  %20 = getelementptr inbounds %"class.Ipopt::PardisoMKLSolverInterface", ptr %9, i32 0, i32 17
  %21 = getelementptr inbounds %"class.Ipopt::PardisoMKLSolverInterface", ptr %9, i32 0, i32 19
  %22 = load ptr, ptr %21, align 8
  %23 = getelementptr inbounds %"class.Ipopt::PardisoMKLSolverInterface", ptr %9, i32 0, i32 21
  %24 = getelementptr inbounds %"class.Ipopt::PardisoMKLSolverInterface", ptr %9, i32 0, i32 20
  %25 = load ptr, ptr %24, align 8
  invoke void @pardiso_(ptr noundef %17, ptr noundef %18, ptr noundef %19, ptr noundef %20, ptr noundef %3, ptr noundef %4, ptr noundef %8, ptr noundef %7, ptr noundef %7, ptr noundef %7, ptr noundef %5, ptr noundef %22, ptr noundef %23, ptr noundef %8, ptr noundef %8, ptr noundef %6, ptr noundef %25)
          to label %26 unwind label %48

26:                                               ; preds = %13
  br label %27

27:                                               ; preds = %26, %1
  %28 = getelementptr inbounds %"class.Ipopt::PardisoMKLSolverInterface", ptr %9, i32 0, i32 14
  %29 = load ptr, ptr %28, align 8
  %30 = icmp eq ptr %29, null
  br i1 %30, label %32, label %31

31:                                               ; preds = %27
  call void @_ZdaPv(ptr noundef %29) #14
  br label %32

32:                                               ; preds = %31, %27
  %33 = getelementptr inbounds %"class.Ipopt::PardisoMKLSolverInterface", ptr %9, i32 0, i32 19
  %34 = load ptr, ptr %33, align 8
  %35 = icmp eq ptr %34, null
  br i1 %35, label %37, label %36

36:                                               ; preds = %32
  call void @_ZdaPv(ptr noundef %34) #14
  br label %37

37:                                               ; preds = %36, %32
  %38 = getelementptr inbounds %"class.Ipopt::PardisoMKLSolverInterface", ptr %9, i32 0, i32 20
  %39 = load ptr, ptr %38, align 8
  %40 = icmp eq ptr %39, null
  br i1 %40, label %42, label %41

41:                                               ; preds = %37
  call void @_ZdaPv(ptr noundef %39) #14
  br label %42

42:                                               ; preds = %41, %37
  %43 = getelementptr inbounds %"class.Ipopt::PardisoMKLSolverInterface", ptr %9, i32 0, i32 5
  %44 = load ptr, ptr %43, align 8
  %45 = icmp eq ptr %44, null
  br i1 %45, label %47, label %46

46:                                               ; preds = %42
  call void @_ZdaPv(ptr noundef %44) #14
  br label %47

47:                                               ; preds = %46, %42
  call void @_ZN5Ipopt30SparseSymLinearSolverInterfaceD2Ev(ptr noundef nonnull align 8 dereferenceable(49) %9) #3
  ret void

48:                                               ; preds = %13
  %49 = landingpad { ptr, i32 }
          catch ptr null
  %50 = extractvalue { ptr, i32 } %49, 0
  call void @__clang_call_terminate(ptr %50) #15
  unreachable
}