; Function Attrs: mustprogress nounwind uwtable
define void @_ZN5Ipopt25PardisoMKLSolverInterfaceD2Ev(ptr noundef nonnull align 8 dereferenceable(140) %0) unnamed_addr #5 align 2 personality ptr @__gxx_personality_v0 {
  %2 = alloca i32, align 4
  %3 = alloca i32, align 4
  %4 = alloca i32, align 4
  %5 = alloca i32, align 4
  %6 = alloca i32, align 4
  %7 = alloca double, align 8
  store ptr getelementptr inbounds ({ [14 x ptr] }, ptr @_ZTVN5Ipopt25PardisoMKLSolverInterfaceE, i64 0, i32 0, i64 2), ptr %0, align 8
  %8 = getelementptr inbounds i8, ptr %0, i64 84
  %9 = load i8, ptr %8, align 4
  %10 = and i8 %9, 1
  %.not = icmp eq i8 %10, 0
  br i1 %.not, label %24, label %11

11:                                               ; preds = %1
  store i32 -1, ptr %2, align 4
  %12 = getelementptr inbounds i8, ptr %0, i64 52
  %13 = load i32, ptr %12, align 4
  store i32 %13, ptr %3, align 4
  store i32 0, ptr %4, align 4
  store i32 0, ptr %6, align 4
  store double 0.000000e+00, ptr %7, align 8
  %14 = getelementptr inbounds i8, ptr %0, i64 88
  %15 = load ptr, ptr %14, align 8
  %16 = getelementptr inbounds i8, ptr %0, i64 96
  %17 = getelementptr inbounds i8, ptr %0, i64 100
  %18 = getelementptr inbounds i8, ptr %0, i64 104
  %19 = getelementptr inbounds i8, ptr %0, i64 112
  %20 = load ptr, ptr %19, align 8
  %21 = getelementptr inbounds i8, ptr %0, i64 128
  %22 = getelementptr inbounds i8, ptr %0, i64 120
  %23 = load ptr, ptr %22, align 8
  invoke void @pardiso_(ptr noundef %15, ptr noundef nonnull %16, ptr noundef nonnull %17, ptr noundef nonnull %18, ptr noundef nonnull %2, ptr noundef nonnull %3, ptr noundef nonnull %7, ptr noundef nonnull %6, ptr noundef nonnull %6, ptr noundef nonnull %6, ptr noundef nonnull %4, ptr noundef %20, ptr noundef nonnull %21, ptr noundef nonnull %7, ptr noundef nonnull %7, ptr noundef nonnull %5, ptr noundef %23)
          to label %24 unwind label %45

24:                                               ; preds = %11, %1
  %25 = getelementptr inbounds i8, ptr %0, i64 88
  %26 = load ptr, ptr %25, align 8
  %27 = icmp eq ptr %26, null
  br i1 %27, label %29, label %28

28:                                               ; preds = %24
  call void @_ZdaPv(ptr noundef nonnull %26) #23
  br label %29

29:                                               ; preds = %28, %24
  %30 = getelementptr inbounds i8, ptr %0, i64 112
  %31 = load ptr, ptr %30, align 8
  %32 = icmp eq ptr %31, null
  br i1 %32, label %34, label %33

33:                                               ; preds = %29
  call void @_ZdaPv(ptr noundef nonnull %31) #23
  br label %34

34:                                               ; preds = %33, %29
  %35 = getelementptr inbounds i8, ptr %0, i64 120
  %36 = load ptr, ptr %35, align 8
  %37 = icmp eq ptr %36, null
  br i1 %37, label %39, label %38

38:                                               ; preds = %34
  call void @_ZdaPv(ptr noundef nonnull %36) #23
  br label %39

39:                                               ; preds = %38, %34
  %40 = getelementptr inbounds i8, ptr %0, i64 64
  %41 = load ptr, ptr %40, align 8
  %42 = icmp eq ptr %41, null
  br i1 %42, label %44, label %43

43:                                               ; preds = %39
  call void @_ZdaPv(ptr noundef nonnull %41) #23
  br label %44

44:                                               ; preds = %43, %39
  call void @_ZN5Ipopt23AlgorithmStrategyObjectD2Ev(ptr noundef nonnull align 8 dereferenceable(49) %0) #22
  ret void

45:                                               ; preds = %11
  %46 = landingpad { ptr, i32 }
          catch ptr null
  %47 = extractvalue { ptr, i32 } %46, 0
  call void @__clang_call_terminate(ptr %47) #24
  unreachable
}